; Function Attrs: mustprogress nofree norecurse nounwind willreturn uwtable
define dso_local void @_ZN4llvm18BinaryStreamReaderC2ENS_15BinaryStreamRefE(ptr noundef nonnull writeonly align 8 captures(none) dereferenceable(64) initializes((0, 64)) %0, ptr noundef readonly captures(none) %1) unnamed_addr #0 align 2 {
  store ptr getelementptr inbounds nuw inrange(-16, 16) (i8, ptr @_ZTVN4llvm18BinaryStreamReaderE, i64 16), ptr %0, align 8
  %3 = getelementptr inbounds nuw i8, ptr %0, i64 8
  %4 = load ptr, ptr %1, align 8
  store ptr %4, ptr %3, align 8
  %5 = getelementptr inbounds nuw i8, ptr %0, i64 16
  %6 = getelementptr inbounds nuw i8, ptr %1, i64 8
  %7 = load ptr, ptr %6, align 8
  store ptr %7, ptr %5, align 8
  %.not.i.i.i.i.i = icmp eq ptr %7, null
  br i1 %.not.i.i.i.i.i, label %_ZN4llvm15BinaryStreamRefC2ERKS0_.exit, label %8

8:                                                ; preds = %2
  %9 = getelementptr inbounds nuw i8, ptr %7, i64 8
  %10 = load i8, ptr @__libc_single_threaded, align 1
  %.not.i.i.i.i.i.i = icmp eq i8 %10, 0
  br i1 %.not.i.i.i.i.i.i, label %14, label %11

11:                                               ; preds = %8
  %12 = load i32, ptr %9, align 4
  %13 = add nsw i32 %12, 1
  store i32 %13, ptr %9, align 4
  br label %_ZN4llvm15BinaryStreamRefC2ERKS0_.exit

14:                                               ; preds = %8
  %15 = atomicrmw volatile add ptr %9, i32 1 acq_rel, align 4
  br label %_ZN4llvm15BinaryStreamRefC2ERKS0_.exit

_ZN4llvm15BinaryStreamRefC2ERKS0_.exit:           ; preds = %2, %11, %14
  %16 = getelementptr inbounds nuw i8, ptr %0, i64 24
  %17 = getelementptr inbounds nuw i8, ptr %1, i64 16
  tail call void @llvm.memcpy.p0.p0.i64(ptr noundef nonnull align 8 dereferenceable(32) %16, ptr noundef nonnull align 8 dereferenceable(32) %17, i64 32, i1 false)
  %18 = getelementptr inbounds nuw i8, ptr %0, i64 56
  store i64 0, ptr %18, align 8
  ret void
}